target datalayout = "e-m:e-p270:32:32-p271:32:32-p272:64:64-i64:64-i128:128-f80:128-n8:16:32:64-S128"
target triple = "x86_64-pc-linux-gnu"

%struct.tvbuff = type { ptr, ptr, i8, i32, ptr, ptr, i32, i32, i32, i32 }
%struct.tvb_subset = type { %struct.tvbuff, %struct.tvb_backing_t }
%struct.tvb_backing_t = type { ptr, i32, i32 }

; Function Attrs: null_pointer_is_valid sspstrong uwtable
define internal i32 @subset_offset(ptr noundef %0, i32 noundef %1) #0 {
  %3 = alloca ptr, align 8
  %4 = alloca i32, align 4
  %5 = alloca ptr, align 8
  %6 = alloca ptr, align 8
  store ptr %0, ptr %3, align 8
  store i32 %1, ptr %4, align 4
  call void @llvm.lifetime.start.p0(i64 8, ptr %5) #4
  %7 = load ptr, ptr %3, align 8
  store ptr %7, ptr %5, align 8
  call void @llvm.lifetime.start.p0(i64 8, ptr %6) #4
  %8 = load ptr, ptr %5, align 8
  %9 = getelementptr inbounds nuw %struct.tvb_subset, ptr %8, i32 0, i32 1
  %10 = getelementptr inbounds nuw %struct.tvb_backing_t, ptr %9, i32 0, i32 0
  %11 = load ptr, ptr %10, align 8
  store ptr %11, ptr %6, align 8
  %12 = load ptr, ptr %6, align 8
  %13 = load i32, ptr %4, align 4
  %14 = load ptr, ptr %5, align 8
  %15 = getelementptr inbounds nuw %struct.tvb_subset, ptr %14, i32 0, i32 1
  %16 = getelementptr inbounds nuw %struct.tvb_backing_t, ptr %15, i32 0, i32 1
  %17 = load i32, ptr %16, align 8
  %18 = add i32 %13, %17
  %19 = call i32 @tvb_offset_from_real_beginning_counter(ptr noundef %12, i32 noundef %18)
  call void @llvm.lifetime.end.p0(i64 8, ptr %6) #4
  call void @llvm.lifetime.end.p0(i64 8, ptr %5) #4
  ret i32 %19
}