; Function Attrs: null_pointer_is_valid sspstrong uwtable
define internal i32 @subset_offset(ptr noundef readonly captures(none) %0, i32 noundef %1) #0 {
  %3 = getelementptr inbounds nuw i8, ptr %0, i64 56
  %4 = load ptr, ptr %3, align 8
  %5 = getelementptr inbounds nuw i8, ptr %0, i64 64
  %6 = load i32, ptr %5, align 8
  %7 = add i32 %6, %1
  %8 = tail call i32 @tvb_offset_from_real_beginning_counter(ptr noundef %4, i32 noundef %7)
  ret i32 %8
}